target datalayout = "e-m:e-p270:32:32-p271:32:32-p272:64:64-i64:64-i128:128-f80:128-n8:16:32:64-S128"
target triple = "x86_64-unknown-linux-gnu"

%"class.base::BasicStringPiece" = type { ptr, i64 }
%"class.std::__cxx11::basic_string" = type { %"struct.std::__cxx11::basic_string<char>::_Alloc_hider", i64, %union.anon }
%"struct.std::__cxx11::basic_string<char>::_Alloc_hider" = type { ptr }
%union.anon = type { i64, [8 x i8] }
%"class.base::Histogram" = type <{ %"class.base::HistogramBase.base", [4 x i8], ptr, i32, i32, %"class.std::unique_ptr.24", %"class.std::unique_ptr.32", i8, [7 x i8] }>
%"class.base::HistogramBase.base" = type <{ ptr, %"class.std::__cxx11::basic_string", i32 }>
%"class.std::unique_ptr.24" = type { %"struct.std::__uniq_ptr_data.25" }
%"struct.std::__uniq_ptr_data.25" = type { %"class.std::__uniq_ptr_impl.26" }
%"class.std::__uniq_ptr_impl.26" = type { %"class.std::tuple.27" }
%"class.std::tuple.27" = type { %"struct.std::_Tuple_impl.28" }
%"struct.std::_Tuple_impl.28" = type { %"struct.std::_Head_base.31" }
%"struct.std::_Head_base.31" = type { ptr }
%"class.std::unique_ptr.32" = type { %"struct.std::__uniq_ptr_data.33" }
%"struct.std::__uniq_ptr_data.33" = type { %"class.std::__uniq_ptr_impl.34" }
%"class.std::__uniq_ptr_impl.34" = type { %"class.std::tuple.35" }
%"class.std::tuple.35" = type { %"struct.std::_Tuple_impl.36" }
%"struct.std::_Tuple_impl.36" = type { %"struct.std::_Head_base.39" }
%"struct.std::_Head_base.39" = type { ptr }

@.str.12 = private unnamed_addr constant [5 x i8] c"type\00", align 1
@.str.13 = private unnamed_addr constant [4 x i8] c"min\00", align 1
@.str.14 = private unnamed_addr constant [4 x i8] c"max\00", align 1
@.str.15 = private unnamed_addr constant [13 x i8] c"bucket_count\00", align 1

; Function Attrs: mustprogress nounwind uwtable
define linkonce_odr dso_local noundef i32 @_ZNK4base9Histogram12declared_maxEv(ptr noundef nonnull align 8 dereferenceable(81) %this) #2 comdat align 2 {
entry:
  %this.addr = alloca ptr, align 8
  store ptr %this, ptr %this.addr, align 8
  %this1 = load ptr, ptr %this.addr, align 8
  %declared_max_ = getelementptr inbounds %"class.base::Histogram", ptr %this1, i32 0, i32 4
  %0 = load i32, ptr %declared_max_, align 4
  ret i32 %0
}

; Function Attrs: mustprogress nounwind uwtable
define linkonce_odr dso_local noundef i32 @_ZNK4base9Histogram12declared_minEv(ptr noundef nonnull align 8 dereferenceable(81) %this) #2 comdat align 2 {
entry:
  %this.addr = alloca ptr, align 8
  store ptr %this, ptr %this.addr, align 8
  %this1 = load ptr, ptr %this.addr, align 8
  %declared_min_ = getelementptr inbounds %"class.base::Histogram", ptr %this1, i32 0, i32 3
  %0 = load i32, ptr %declared_min_, align 8
  ret i32 %0
}

; Function Attrs: mustprogress uwtable
define dso_local void @_ZNK4base9Histogram13GetParametersEPNS_15DictionaryValueE(ptr noundef nonnull align 8 dereferenceable(81) %this, ptr noundef %params) unnamed_addr #0 align 2 personality ptr @__gxx_personality_v0 {
entry:
  %this.addr = alloca ptr, align 8
  %params.addr = alloca ptr, align 8
  %agg.tmp = alloca %"class.base::BasicStringPiece", align 8
  %agg.tmp2 = alloca %"class.base::BasicStringPiece", align 8
  %ref.tmp = alloca %"class.std::__cxx11::basic_string", align 8
  %exn.slot = alloca ptr, align 8
  %ehselector.slot = alloca i32, align 4
  %agg.tmp4 = alloca %"class.base::BasicStringPiece", align 8
  %agg.tmp6 = alloca %"class.base::BasicStringPiece", align 8
  %agg.tmp8 = alloca %"class.base::BasicStringPiece", align 8
  store ptr %this, ptr %this.addr, align 8
  store ptr %params, ptr %params.addr, align 8
  %this1 = load ptr, ptr %this.addr, align 8
  %0 = load ptr, ptr %params.addr, align 8
  call void @_ZN4base16BasicStringPieceINSt7__cxx1112basic_stringIcSt11char_traitsIcESaIcEEEEC1EPKc(ptr noundef nonnull align 8 dereferenceable(16) %agg.tmp, ptr noundef @.str.12)
  %vtable = load ptr, ptr %this1, align 8
  %vfn = getelementptr inbounds ptr, ptr %vtable, i64 3
  %1 = load ptr, ptr %vfn, align 8
  %call = call noundef i32 %1(ptr noundef nonnull align 8 dereferenceable(81) %this1)
  call void @_ZN4base21HistogramTypeToStringB5cxx11ENS_13HistogramTypeE(ptr sret(%"class.std::__cxx11::basic_string") align 8 %ref.tmp, i32 noundef %call)
  invoke void @_ZN4base16BasicStringPieceINSt7__cxx1112basic_stringIcSt11char_traitsIcESaIcEEEEC1ERKS6_(ptr noundef nonnull align 8 dereferenceable(16) %agg.tmp2, ptr noundef nonnull align 8 dereferenceable(32) %ref.tmp)
          to label %invoke.cont unwind label %lpad

invoke.cont:                                      ; preds = %entry
  %2 = getelementptr inbounds { ptr, i64 }, ptr %agg.tmp, i32 0, i32 0
  %3 = load ptr, ptr %2, align 8
  %4 = getelementptr inbounds { ptr, i64 }, ptr %agg.tmp, i32 0, i32 1
  %5 = load i64, ptr %4, align 8
  %6 = getelementptr inbounds { ptr, i64 }, ptr %agg.tmp2, i32 0, i32 0
  %7 = load ptr, ptr %6, align 8
  %8 = getelementptr inbounds { ptr, i64 }, ptr %agg.tmp2, i32 0, i32 1
  %9 = load i64, ptr %8, align 8
  invoke void @_ZN4base15DictionaryValue9SetStringENS_16BasicStringPieceINSt7__cxx1112basic_stringIcSt11char_traitsIcESaIcEEEEES8_(ptr noundef nonnull align 8 dereferenceable(64) %0, ptr %3, i64 %5, ptr %7, i64 %9)
          to label %invoke.cont3 unwind label %lpad

invoke.cont3:                                     ; preds = %invoke.cont
  call void @_ZNSt7__cxx1112basic_stringIcSt11char_traitsIcESaIcEED1Ev(ptr noundef nonnull align 8 dereferenceable(32) %ref.tmp) #12
  %10 = load ptr, ptr %params.addr, align 8
  call void @_ZN4base16BasicStringPieceINSt7__cxx1112basic_stringIcSt11char_traitsIcESaIcEEEEC1EPKc(ptr noundef nonnull align 8 dereferenceable(16) %agg.tmp4, ptr noundef @.str.13)
  %call5 = call noundef i32 @_ZNK4base9Histogram12declared_minEv(ptr noundef nonnull align 8 dereferenceable(81) %this1)
  %11 = getelementptr inbounds { ptr, i64 }, ptr %agg.tmp4, i32 0, i32 0
  %12 = load ptr, ptr %11, align 8
  %13 = getelementptr inbounds { ptr, i64 }, ptr %agg.tmp4, i32 0, i32 1
  %14 = load i64, ptr %13, align 8
  call void @_ZN4base15DictionaryValue10SetIntegerENS_16BasicStringPieceINSt7__cxx1112basic_stringIcSt11char_traitsIcESaIcEEEEEi(ptr noundef nonnull align 8 dereferenceable(64) %10, ptr %12, i64 %14, i32 noundef %call5)
  %15 = load ptr, ptr %params.addr, align 8
  call void @_ZN4base16BasicStringPieceINSt7__cxx1112basic_stringIcSt11char_traitsIcESaIcEEEEC1EPKc(ptr noundef nonnull align 8 dereferenceable(16) %agg.tmp6, ptr noundef @.str.14)
  %call7 = call noundef i32 @_ZNK4base9Histogram12declared_maxEv(ptr noundef nonnull align 8 dereferenceable(81) %this1)
  %16 = getelementptr inbounds { ptr, i64 }, ptr %agg.tmp6, i32 0, i32 0
  %17 = load ptr, ptr %16, align 8
  %18 = getelementptr inbounds { ptr, i64 }, ptr %agg.tmp6, i32 0, i32 1
  %19 = load i64, ptr %18, align 8
  call void @_ZN4base15DictionaryValue10SetIntegerENS_16BasicStringPieceINSt7__cxx1112basic_stringIcSt11char_traitsIcESaIcEEEEEi(ptr noundef nonnull align 8 dereferenceable(64) %15, ptr %17, i64 %19, i32 noundef %call7)
  %20 = load ptr, ptr %params.addr, align 8
  call void @_ZN4base16BasicStringPieceINSt7__cxx1112basic_stringIcSt11char_traitsIcESaIcEEEEC1EPKc(ptr noundef nonnull align 8 dereferenceable(16) %agg.tmp8, ptr noundef @.str.15)
  %vtable9 = load ptr, ptr %this1, align 8
  %vfn10 = getelementptr inbounds ptr, ptr %vtable9, i64 19
  %21 = load ptr, ptr %vfn10, align 8
  %call11 = call noundef i32 %21(ptr noundef nonnull align 8 dereferenceable(81) %this1)
  %22 = getelementptr inbounds { ptr, i64 }, ptr %agg.tmp8, i32 0, i32 0
  %23 = load ptr, ptr %22, align 8
  %24 = getelementptr inbounds { ptr, i64 }, ptr %agg.tmp8, i32 0, i32 1
  %25 = load i64, ptr %24, align 8
  call void @_ZN4base15DictionaryValue10SetIntegerENS_16BasicStringPieceINSt7__cxx1112basic_stringIcSt11char_traitsIcESaIcEEEEEi(ptr noundef nonnull align 8 dereferenceable(64) %20, ptr %23, i64 %25, i32 noundef %call11)
  ret void

lpad:                                             ; preds = %invoke.cont, %entry
  %26 = landingpad { ptr, i32 }
          cleanup
  %27 = extractvalue { ptr, i32 } %26, 0
  store ptr %27, ptr %exn.slot, align 8
  %28 = extractvalue { ptr, i32 } %26, 1
  store i32 %28, ptr %ehselector.slot, align 4
  call void @_ZNSt7__cxx1112basic_stringIcSt11char_traitsIcESaIcEED1Ev(ptr noundef nonnull align 8 dereferenceable(32) %ref.tmp) #12
  br label %eh.resume

eh.resume:                                        ; preds = %lpad
  %exn = load ptr, ptr %exn.slot, align 8
  %sel = load i32, ptr %ehselector.slot, align 4
  %lpad.val = insertvalue { ptr, i32 } poison, ptr %exn, 0
  %lpad.val12 = insertvalue { ptr, i32 } %lpad.val, i32 %sel, 1
  resume { ptr, i32 } %lpad.val12
}