; Function Attrs: mustprogress uwtable
define dso_local void @_ZNK4base9Histogram13GetParametersEPNS_15DictionaryValueE(ptr noundef nonnull align 8 dereferenceable(81) %this, ptr noundef %params) unnamed_addr #0 align 2 personality ptr @__gxx_personality_v0 {
entry:
  %agg.tmp = alloca %"class.base::BasicStringPiece", align 8
  %agg.tmp2 = alloca %"class.base::BasicStringPiece", align 8
  %ref.tmp = alloca %"class.std::__cxx11::basic_string", align 8
  %agg.tmp4 = alloca %"class.base::BasicStringPiece", align 8
  %agg.tmp6 = alloca %"class.base::BasicStringPiece", align 8
  %agg.tmp8 = alloca %"class.base::BasicStringPiece", align 8
  call void @_ZN4base16BasicStringPieceINSt7__cxx1112basic_stringIcSt11char_traitsIcESaIcEEEEC1EPKc(ptr noundef nonnull align 8 dereferenceable(16) %agg.tmp, ptr noundef nonnull @.str.12)
  %vtable = load ptr, ptr %this, align 8
  %vfn = getelementptr inbounds i8, ptr %vtable, i64 24
  %0 = load ptr, ptr %vfn, align 8
  %call = call noundef i32 %0(ptr noundef nonnull align 8 dereferenceable(81) %this)
  call void @_ZN4base21HistogramTypeToStringB5cxx11ENS_13HistogramTypeE(ptr nonnull sret(%"class.std::__cxx11::basic_string") align 8 %ref.tmp, i32 noundef %call)
  invoke void @_ZN4base16BasicStringPieceINSt7__cxx1112basic_stringIcSt11char_traitsIcESaIcEEEEC1ERKS6_(ptr noundef nonnull align 8 dereferenceable(16) %agg.tmp2, ptr noundef nonnull align 8 dereferenceable(32) %ref.tmp)
          to label %invoke.cont unwind label %lpad

invoke.cont:                                      ; preds = %entry
  %1 = load ptr, ptr %agg.tmp, align 8
  %2 = getelementptr inbounds i8, ptr %agg.tmp, i64 8
  %3 = load i64, ptr %2, align 8
  %4 = load ptr, ptr %agg.tmp2, align 8
  %5 = getelementptr inbounds i8, ptr %agg.tmp2, i64 8
  %6 = load i64, ptr %5, align 8
  invoke void @_ZN4base15DictionaryValue9SetStringENS_16BasicStringPieceINSt7__cxx1112basic_stringIcSt11char_traitsIcESaIcEEEEES8_(ptr noundef nonnull align 8 dereferenceable(64) %params, ptr %1, i64 %3, ptr %4, i64 %6)
          to label %invoke.cont3 unwind label %lpad

invoke.cont3:                                     ; preds = %invoke.cont
  call void @_ZNSt7__cxx1112basic_stringIcSt11char_traitsIcESaIcEED1Ev(ptr noundef nonnull align 8 dereferenceable(32) %ref.tmp) #19
  call void @_ZN4base16BasicStringPieceINSt7__cxx1112basic_stringIcSt11char_traitsIcESaIcEEEEC1EPKc(ptr noundef nonnull align 8 dereferenceable(16) %agg.tmp4, ptr noundef nonnull @.str.13)
  %declared_min_.i = getelementptr inbounds i8, ptr %this, i64 56
  %7 = load i32, ptr %declared_min_.i, align 8
  %8 = load ptr, ptr %agg.tmp4, align 8
  %9 = getelementptr inbounds i8, ptr %agg.tmp4, i64 8
  %10 = load i64, ptr %9, align 8
  call void @_ZN4base15DictionaryValue10SetIntegerENS_16BasicStringPieceINSt7__cxx1112basic_stringIcSt11char_traitsIcESaIcEEEEEi(ptr noundef nonnull align 8 dereferenceable(64) %params, ptr %8, i64 %10, i32 noundef %7)
  call void @_ZN4base16BasicStringPieceINSt7__cxx1112basic_stringIcSt11char_traitsIcESaIcEEEEC1EPKc(ptr noundef nonnull align 8 dereferenceable(16) %agg.tmp6, ptr noundef nonnull @.str.14)
  %declared_max_.i = getelementptr inbounds i8, ptr %this, i64 60
  %11 = load i32, ptr %declared_max_.i, align 4
  %12 = load ptr, ptr %agg.tmp6, align 8
  %13 = getelementptr inbounds i8, ptr %agg.tmp6, i64 8
  %14 = load i64, ptr %13, align 8
  call void @_ZN4base15DictionaryValue10SetIntegerENS_16BasicStringPieceINSt7__cxx1112basic_stringIcSt11char_traitsIcESaIcEEEEEi(ptr noundef nonnull align 8 dereferenceable(64) %params, ptr %12, i64 %14, i32 noundef %11)
  call void @_ZN4base16BasicStringPieceINSt7__cxx1112basic_stringIcSt11char_traitsIcESaIcEEEEC1EPKc(ptr noundef nonnull align 8 dereferenceable(16) %agg.tmp8, ptr noundef nonnull @.str.15)
  %vtable9 = load ptr, ptr %this, align 8
  %vfn10 = getelementptr inbounds i8, ptr %vtable9, i64 152
  %15 = load ptr, ptr %vfn10, align 8
  %call11 = call noundef i32 %15(ptr noundef nonnull align 8 dereferenceable(81) %this)
  %16 = load ptr, ptr %agg.tmp8, align 8
  %17 = getelementptr inbounds i8, ptr %agg.tmp8, i64 8
  %18 = load i64, ptr %17, align 8
  call void @_ZN4base15DictionaryValue10SetIntegerENS_16BasicStringPieceINSt7__cxx1112basic_stringIcSt11char_traitsIcESaIcEEEEEi(ptr noundef nonnull align 8 dereferenceable(64) %params, ptr %16, i64 %18, i32 noundef %call11)
  ret void

lpad:                                             ; preds = %invoke.cont, %entry
  %19 = landingpad { ptr, i32 }
          cleanup
  call void @_ZNSt7__cxx1112basic_stringIcSt11char_traitsIcESaIcEED1Ev(ptr noundef nonnull align 8 dereferenceable(32) %ref.tmp) #19
  resume { ptr, i32 } %19
}